; Function Attrs: nounwind uwtable
define dso_local range(i32 -1, 1) i32 @strbuf_reencode(ptr noundef captures(none) %0, ptr noundef %1, ptr noundef %2) local_unnamed_addr #3 {
  %4 = alloca i64, align 8
  call void @llvm.lifetime.start.p0(i64 8, ptr nonnull %4) #25
  %5 = tail call i32 @same_encoding(ptr noundef %1, ptr noundef %2) #25
  %.not = icmp eq i32 %5, 0
  br i1 %.not, label %6, label %32

6:                                                ; preds = %3
  %7 = getelementptr inbounds nuw i8, ptr %0, i64 16
  %8 = load ptr, ptr %7, align 8, !tbaa !12
  %9 = getelementptr inbounds nuw i8, ptr %0, i64 8
  %10 = load i64, ptr %9, align 8, !tbaa !16
  %11 = call ptr @reencode_string_len(ptr noundef %8, i64 noundef %10, ptr noundef %2, ptr noundef %1, ptr noundef nonnull %4) #25
  %.not10 = icmp eq ptr %11, null
  br i1 %.not10, label %32, label %12

12:                                               ; preds = %6
  %13 = load i64, ptr %4, align 8, !tbaa !17
  %14 = load i64, ptr %0, align 8, !tbaa !15
  %.not.i.i = icmp eq i64 %14, 0
  br i1 %.not.i.i, label %strbuf_release.exit.i, label %15

15:                                               ; preds = %12
  %16 = load ptr, ptr %7, align 8, !tbaa !12
  call void @free(ptr noundef %16) #25
  br label %strbuf_release.exit.i

strbuf_release.exit.i:                            ; preds = %15, %12
  store ptr %11, ptr %7, align 8, !tbaa !12
  store i64 %13, ptr %9, align 8, !tbaa !16
  store i64 %13, ptr %0, align 8, !tbaa !15
  %.not.i9.i = icmp eq i64 %13, 0
  %17 = icmp eq i64 %13, -1
  br i1 %17, label %18, label %19

18:                                               ; preds = %strbuf_release.exit.i
  call void (ptr, ...) @die(ptr noundef nonnull @.str) #24
  unreachable

19:                                               ; preds = %strbuf_release.exit.i
  br i1 %.not.i9.i, label %20, label %21

20:                                               ; preds = %19
  store ptr null, ptr %7, align 8, !tbaa !12
  br label %21

21:                                               ; preds = %20, %19
  %22 = phi ptr [ null, %20 ], [ %11, %19 ]
  %23 = add nuw i64 %13, 1
  %24 = mul i64 %13, 3
  %25 = add i64 %24, 48
  %26 = lshr i64 %25, 1
  %..i.i = call i64 @llvm.umax.i64(i64 %26, i64 %23)
  store i64 %..i.i, ptr %0, align 8, !tbaa !15
  %27 = call ptr @xrealloc(ptr noundef %22, i64 noundef %..i.i) #25
  store ptr %27, ptr %7, align 8, !tbaa !12
  br i1 %.not.i9.i, label %28, label %strbuf_attach.exit

28:                                               ; preds = %21
  store i8 0, ptr %27, align 1, !tbaa !4
  %.pre.i = load ptr, ptr %7, align 8, !tbaa !12
  br label %strbuf_attach.exit

strbuf_attach.exit:                               ; preds = %21, %28
  %29 = phi ptr [ %27, %21 ], [ %.pre.i, %28 ]
  %30 = load i64, ptr %9, align 8, !tbaa !16
  %31 = getelementptr inbounds nuw i8, ptr %29, i64 %30
  store i8 0, ptr %31, align 1, !tbaa !4
  br label %32

32:                                               ; preds = %6, %3, %strbuf_attach.exit
  %.0 = phi i32 [ 0, %strbuf_attach.exit ], [ 0, %3 ], [ -1, %6 ]
  call void @llvm.lifetime.end.p0(i64 8, ptr nonnull %4) #25
  ret i32 %.0
}